target datalayout = "e-m:e-p270:32:32-p271:32:32-p272:64:64-i64:64-i128:128-f80:128-n8:16:32:64-S128"
target triple = "x86_64-pc-linux-gnu"

%struct.OnigRegSetStruct = type { ptr, i32, i32, ptr, i32, i32, i32, i32, i32 }
%struct.RR = type { ptr, ptr }

; Function Attrs: inlinehint nounwind uwtable
define internal i32 @regset_search_body_regex_lead(ptr noundef %0, ptr noundef %1, ptr noundef %2, ptr noundef %3, ptr noundef %4, i32 noundef %5, i32 noundef %6, ptr noundef %7, ptr noundef %8) #8 {
  %10 = alloca ptr, align 8
  %11 = alloca ptr, align 8
  %12 = alloca ptr, align 8
  %13 = alloca ptr, align 8
  %14 = alloca ptr, align 8
  %15 = alloca i32, align 4
  %16 = alloca i32, align 4
  %17 = alloca ptr, align 8
  %18 = alloca ptr, align 8
  %19 = alloca i32, align 4
  %20 = alloca i32, align 4
  %21 = alloca i32, align 4
  %22 = alloca i32, align 4
  %23 = alloca ptr, align 8
  %24 = alloca ptr, align 8
  %25 = alloca ptr, align 8
  store ptr %0, ptr %10, align 8, !tbaa !62
  store ptr %1, ptr %11, align 8, !tbaa !60
  store ptr %2, ptr %12, align 8, !tbaa !60
  store ptr %3, ptr %13, align 8, !tbaa !60
  store ptr %4, ptr %14, align 8, !tbaa !60
  store i32 %5, ptr %15, align 4, !tbaa !9
  store i32 %6, ptr %16, align 4, !tbaa !9
  store ptr %7, ptr %17, align 8, !tbaa !64
  store ptr %8, ptr %18, align 8, !tbaa !66
  call void @llvm.lifetime.start.p0(i64 4, ptr %19) #9
  call void @llvm.lifetime.start.p0(i64 4, ptr %20) #9
  call void @llvm.lifetime.start.p0(i64 4, ptr %21) #9
  call void @llvm.lifetime.start.p0(i64 4, ptr %22) #9
  call void @llvm.lifetime.start.p0(i64 8, ptr %23) #9
  call void @llvm.lifetime.start.p0(i64 8, ptr %24) #9
  call void @llvm.lifetime.start.p0(i64 8, ptr %25) #9
  %26 = load ptr, ptr %10, align 8, !tbaa !62
  %27 = getelementptr inbounds nuw %struct.OnigRegSetStruct, ptr %26, i32 0, i32 1
  %28 = load i32, ptr %27, align 8, !tbaa !67
  store i32 %28, ptr %21, align 4, !tbaa !9
  store i32 -1, ptr %22, align 4, !tbaa !9
  %29 = load ptr, ptr %14, align 8, !tbaa !60
  store ptr %29, ptr %23, align 8, !tbaa !60
  store i32 0, ptr %20, align 4, !tbaa !9
  br label %30

30:                                               ; preds = %96, %9
  %31 = load i32, ptr %20, align 4, !tbaa !9
  %32 = load i32, ptr %21, align 4, !tbaa !9
  %33 = icmp slt i32 %31, %32
  br i1 %33, label %34, label %99

34:                                               ; preds = %30
  %35 = load ptr, ptr %10, align 8, !tbaa !62
  %36 = getelementptr inbounds nuw %struct.OnigRegSetStruct, ptr %35, i32 0, i32 0
  %37 = load ptr, ptr %36, align 8, !tbaa !72
  %38 = load i32, ptr %20, align 4, !tbaa !9
  %39 = sext i32 %38 to i64
  %40 = getelementptr inbounds %struct.RR, ptr %37, i64 %39
  %41 = getelementptr inbounds nuw %struct.RR, ptr %40, i32 0, i32 0
  %42 = load ptr, ptr %41, align 8, !tbaa !73
  store ptr %42, ptr %24, align 8, !tbaa !57
  %43 = load ptr, ptr %10, align 8, !tbaa !62
  %44 = getelementptr inbounds nuw %struct.OnigRegSetStruct, ptr %43, i32 0, i32 0
  %45 = load ptr, ptr %44, align 8, !tbaa !72
  %46 = load i32, ptr %20, align 4, !tbaa !9
  %47 = sext i32 %46 to i64
  %48 = getelementptr inbounds %struct.RR, ptr %45, i64 %47
  %49 = getelementptr inbounds nuw %struct.RR, ptr %48, i32 0, i32 1
  %50 = load ptr, ptr %49, align 8, !tbaa !75
  store ptr %50, ptr %25, align 8, !tbaa !21
  %51 = load ptr, ptr %24, align 8, !tbaa !57
  %52 = load ptr, ptr %11, align 8, !tbaa !60
  %53 = load ptr, ptr %12, align 8, !tbaa !60
  %54 = load ptr, ptr %13, align 8, !tbaa !60
  %55 = load ptr, ptr %23, align 8, !tbaa !60
  %56 = load ptr, ptr %14, align 8, !tbaa !60
  %57 = load ptr, ptr %25, align 8, !tbaa !21
  %58 = load i32, ptr %16, align 4, !tbaa !9
  %59 = load ptr, ptr %17, align 8, !tbaa !64
  %60 = load i32, ptr %20, align 4, !tbaa !9
  %61 = sext i32 %60 to i64
  %62 = getelementptr inbounds ptr, ptr %59, i64 %61
  %63 = load ptr, ptr %62, align 8, !tbaa !4
  %64 = call i32 @search_in_range(ptr noundef %51, ptr noundef %52, ptr noundef %53, ptr noundef %54, ptr noundef %55, ptr noundef %56, ptr noundef %57, i32 noundef %58, ptr noundef %63)
  store i32 %64, ptr %19, align 4, !tbaa !9
  %65 = load i32, ptr %19, align 4, !tbaa !9
  %66 = icmp sgt i32 %65, 0
  br i1 %66, label %67, label %87

67:                                               ; preds = %34
  %68 = load ptr, ptr %11, align 8, !tbaa !60
  %69 = load i32, ptr %19, align 4, !tbaa !9
  %70 = sext i32 %69 to i64
  %71 = getelementptr inbounds i8, ptr %68, i64 %70
  %72 = load ptr, ptr %23, align 8, !tbaa !60
  %73 = icmp ult ptr %71, %72
  br i1 %73, label %74, label %86

74:                                               ; preds = %67
  %75 = load i32, ptr %20, align 4, !tbaa !9
  store i32 %75, ptr %22, align 4, !tbaa !9
  %76 = load i32, ptr %19, align 4, !tbaa !9
  %77 = load ptr, ptr %18, align 8, !tbaa !66
  store i32 %76, ptr %77, align 4, !tbaa !9
  %78 = load i32, ptr %15, align 4, !tbaa !9
  %79 = icmp eq i32 %78, 2
  br i1 %79, label %80, label %81

80:                                               ; preds = %74
  br label %99

81:                                               ; preds = %74
  %82 = load ptr, ptr %11, align 8, !tbaa !60
  %83 = load i32, ptr %19, align 4, !tbaa !9
  %84 = sext i32 %83 to i64
  %85 = getelementptr inbounds i8, ptr %82, i64 %84
  store ptr %85, ptr %23, align 8, !tbaa !60
  br label %86

86:                                               ; preds = %81, %67
  br label %95

87:                                               ; preds = %34
  %88 = load i32, ptr %19, align 4, !tbaa !9
  %89 = icmp eq i32 %88, 0
  br i1 %89, label %90, label %94

90:                                               ; preds = %87
  %91 = load i32, ptr %20, align 4, !tbaa !9
  store i32 %91, ptr %22, align 4, !tbaa !9
  %92 = load i32, ptr %19, align 4, !tbaa !9
  %93 = load ptr, ptr %18, align 8, !tbaa !66
  store i32 %92, ptr %93, align 4, !tbaa !9
  br label %99

94:                                               ; preds = %87
  br label %95

95:                                               ; preds = %94, %86
  br label %96

96:                                               ; preds = %95
  %97 = load i32, ptr %20, align 4, !tbaa !9
  %98 = add nsw i32 %97, 1
  store i32 %98, ptr %20, align 4, !tbaa !9
  br label %30, !llvm.loop !187

99:                                               ; preds = %90, %80, %30
  %100 = load i32, ptr %22, align 4, !tbaa !9
  call void @llvm.lifetime.end.p0(i64 8, ptr %25) #9
  call void @llvm.lifetime.end.p0(i64 8, ptr %24) #9
  call void @llvm.lifetime.end.p0(i64 8, ptr %23) #9
  call void @llvm.lifetime.end.p0(i64 4, ptr %22) #9
  call void @llvm.lifetime.end.p0(i64 4, ptr %21) #9
  call void @llvm.lifetime.end.p0(i64 4, ptr %20) #9
  call void @llvm.lifetime.end.p0(i64 4, ptr %19) #9
  ret i32 %100
}